target datalayout = "e-m:e-p270:32:32-p271:32:32-p272:64:64-i64:64-i128:128-f80:128-n8:16:32:64-S128"
target triple = "x86_64-pc-linux-gnu"

%struct.pmix_class_t = type { ptr, ptr, ptr, ptr, i32, i32, ptr, ptr, i64 }
%struct.pmix_mca_base_framework_t = type { ptr, ptr, ptr, ptr, ptr, ptr, i32, i32, ptr, ptr, i32, i32, %struct.pmix_list_t, %struct.pmix_list_t }
%struct.pmix_list_t = type { %struct.pmix_object_t, %struct.pmix_list_item_t, i64 }
%struct.pmix_object_t = type { %union.pthread_mutex_t, ptr, i32, %struct.pmix_tma }
%union.pthread_mutex_t = type { %struct.__pthread_mutex_s }
%struct.__pthread_mutex_s = type { i32, i32, i32, i32, i32, i16, i16, %struct.__pthread_internal_list }
%struct.__pthread_internal_list = type { ptr, ptr }
%struct.pmix_tma = type { ptr, ptr, ptr, ptr, ptr, ptr, ptr, ptr }
%struct.pmix_list_item_t = type { %struct.pmix_object_t, ptr, ptr, i32 }
%struct.pmix_hash_table_t = type { %struct.pmix_object_t, ptr, ptr, i64, i64, i64, i32, i32, i32, i32, ptr }

@initialized = internal global i8 0, align 1
@pmix_pdl_base_framework = external global %struct.pmix_mca_base_framework_t, align 8
@.str.4 = private unnamed_addr constant [106 x i8] c"%s %d:%s failed -- process will likely abort (open the dl framework returned %d instead of PMIX_SUCCESS)\0A\00", align 1
@.str.5 = private unnamed_addr constant [37 x i8] c"pmix_mca_base_component_repository.c\00", align 1
@__func__.pmix_mca_base_component_repository_init = private unnamed_addr constant [40 x i8] c"pmix_mca_base_component_repository_init\00", align 1
@pmix_class_init_epoch = external global i32, align 4
@pmix_hash_table_t_class = external global %struct.pmix_class_t, align 8
@pmix_mca_base_component_repository = internal global %struct.pmix_hash_table_t zeroinitializer, align 8
@pmix_mca_base_component_path = external global ptr, align 8

; Function Attrs: inlinehint nounwind uwtable
define internal void @pmix_obj_run_destructors(ptr noundef %0) #6 {
  %2 = alloca ptr, align 8
  %3 = alloca ptr, align 8
  store ptr %0, ptr %2, align 8, !tbaa !23
  call void @llvm.lifetime.start.p0(i64 8, ptr %3) #12
  %4 = load ptr, ptr %2, align 8, !tbaa !23
  %5 = getelementptr inbounds nuw %struct.pmix_object_t, ptr %4, i32 0, i32 1
  %6 = load ptr, ptr %5, align 8, !tbaa !53
  %7 = getelementptr inbounds nuw %struct.pmix_class_t, ptr %6, i32 0, i32 7
  %8 = load ptr, ptr %7, align 8, !tbaa !69
  store ptr %8, ptr %3, align 8, !tbaa !33
  br label %9

9:                                                ; preds = %13, %1
  %10 = load ptr, ptr %3, align 8, !tbaa !33
  %11 = load ptr, ptr %10, align 8, !tbaa !33
  %12 = icmp ne ptr null, %11
  br i1 %12, label %13, label %19

13:                                               ; preds = %9
  %14 = load ptr, ptr %3, align 8, !tbaa !33
  %15 = load ptr, ptr %14, align 8, !tbaa !33
  %16 = load ptr, ptr %2, align 8, !tbaa !23
  call void %15(ptr noundef %16)
  %17 = load ptr, ptr %3, align 8, !tbaa !33
  %18 = getelementptr inbounds nuw ptr, ptr %17, i32 1
  store ptr %18, ptr %3, align 8, !tbaa !33
  br label %9, !llvm.loop !70

19:                                               ; preds = %9
  call void @llvm.lifetime.end.p0(i64 8, ptr %3) #12
  ret void
}

; Function Attrs: inlinehint nounwind uwtable
define internal void @pmix_obj_run_constructors(ptr noundef %0) #6 {
  %2 = alloca ptr, align 8
  %3 = alloca ptr, align 8
  store ptr %0, ptr %2, align 8, !tbaa !23
  call void @llvm.lifetime.start.p0(i64 8, ptr %3) #12
  %4 = load ptr, ptr %2, align 8, !tbaa !23
  %5 = getelementptr inbounds nuw %struct.pmix_object_t, ptr %4, i32 0, i32 1
  %6 = load ptr, ptr %5, align 8, !tbaa !53
  %7 = getelementptr inbounds nuw %struct.pmix_class_t, ptr %6, i32 0, i32 6
  %8 = load ptr, ptr %7, align 8, !tbaa !67
  store ptr %8, ptr %3, align 8, !tbaa !33
  br label %9

9:                                                ; preds = %13, %1
  %10 = load ptr, ptr %3, align 8, !tbaa !33
  %11 = load ptr, ptr %10, align 8, !tbaa !33
  %12 = icmp ne ptr null, %11
  br i1 %12, label %13, label %19

13:                                               ; preds = %9
  %14 = load ptr, ptr %3, align 8, !tbaa !33
  %15 = load ptr, ptr %14, align 8, !tbaa !33
  %16 = load ptr, ptr %2, align 8, !tbaa !23
  call void %15(ptr noundef %16)
  %17 = load ptr, ptr %3, align 8, !tbaa !33
  %18 = getelementptr inbounds nuw ptr, ptr %17, i32 1
  store ptr %18, ptr %3, align 8, !tbaa !33
  br label %9, !llvm.loop !68

19:                                               ; preds = %9
  call void @llvm.lifetime.end.p0(i64 8, ptr %3) #12
  ret void
}

; Function Attrs: inlinehint nounwind uwtable
define internal void @pmix_obj_construct_tma(ptr noundef %0, ptr noundef %1) #6 {
  %3 = alloca ptr, align 8
  %4 = alloca ptr, align 8
  store ptr %0, ptr %3, align 8, !tbaa !23
  store ptr %1, ptr %4, align 8, !tbaa !57
  %5 = load ptr, ptr %4, align 8, !tbaa !57
  %6 = icmp eq ptr null, %5
  br i1 %6, label %7, label %32

7:                                                ; preds = %2
  %8 = load ptr, ptr %3, align 8, !tbaa !23
  %9 = getelementptr inbounds nuw %struct.pmix_object_t, ptr %8, i32 0, i32 3
  %10 = getelementptr inbounds nuw %struct.pmix_tma, ptr %9, i32 0, i32 0
  store ptr null, ptr %10, align 8, !tbaa !59
  %11 = load ptr, ptr %3, align 8, !tbaa !23
  %12 = getelementptr inbounds nuw %struct.pmix_object_t, ptr %11, i32 0, i32 3
  %13 = getelementptr inbounds nuw %struct.pmix_tma, ptr %12, i32 0, i32 1
  store ptr null, ptr %13, align 8, !tbaa !60
  %14 = load ptr, ptr %3, align 8, !tbaa !23
  %15 = getelementptr inbounds nuw %struct.pmix_object_t, ptr %14, i32 0, i32 3
  %16 = getelementptr inbounds nuw %struct.pmix_tma, ptr %15, i32 0, i32 2
  store ptr null, ptr %16, align 8, !tbaa !61
  %17 = load ptr, ptr %3, align 8, !tbaa !23
  %18 = getelementptr inbounds nuw %struct.pmix_object_t, ptr %17, i32 0, i32 3
  %19 = getelementptr inbounds nuw %struct.pmix_tma, ptr %18, i32 0, i32 3
  store ptr null, ptr %19, align 8, !tbaa !62
  %20 = load ptr, ptr %3, align 8, !tbaa !23
  %21 = getelementptr inbounds nuw %struct.pmix_object_t, ptr %20, i32 0, i32 3
  %22 = getelementptr inbounds nuw %struct.pmix_tma, ptr %21, i32 0, i32 4
  store ptr null, ptr %22, align 8, !tbaa !63
  %23 = load ptr, ptr %3, align 8, !tbaa !23
  %24 = getelementptr inbounds nuw %struct.pmix_object_t, ptr %23, i32 0, i32 3
  %25 = getelementptr inbounds nuw %struct.pmix_tma, ptr %24, i32 0, i32 5
  store ptr null, ptr %25, align 8, !tbaa !40
  %26 = load ptr, ptr %3, align 8, !tbaa !23
  %27 = getelementptr inbounds nuw %struct.pmix_object_t, ptr %26, i32 0, i32 3
  %28 = getelementptr inbounds nuw %struct.pmix_tma, ptr %27, i32 0, i32 6
  store ptr null, ptr %28, align 8, !tbaa !64
  %29 = load ptr, ptr %3, align 8, !tbaa !23
  %30 = getelementptr inbounds nuw %struct.pmix_object_t, ptr %29, i32 0, i32 3
  %31 = getelementptr inbounds nuw %struct.pmix_tma, ptr %30, i32 0, i32 7
  store ptr null, ptr %31, align 8, !tbaa !65
  br label %36

32:                                               ; preds = %2
  %33 = load ptr, ptr %3, align 8, !tbaa !23
  %34 = getelementptr inbounds nuw %struct.pmix_object_t, ptr %33, i32 0, i32 3
  %35 = load ptr, ptr %4, align 8, !tbaa !57
  call void @llvm.memcpy.p0.p0.i64(ptr align 8 %34, ptr align 8 %35, i64 64, i1 false), !tbaa.struct !66
  br label %36

36:                                               ; preds = %32, %7
  ret void
}

; Function Attrs: nounwind uwtable
define i32 @pmix_mca_base_component_repository_init() #0 {
  %1 = alloca i32, align 4
  %2 = alloca ptr, align 8
  %3 = alloca ptr, align 8
  %4 = alloca [32 x i8], align 16
  %5 = alloca i32, align 4
  %6 = alloca i32, align 4
  %7 = alloca i32, align 4
  %8 = alloca i32, align 4
  call void @llvm.lifetime.start.p0(i64 8, ptr %2) #12
  store ptr null, ptr %2, align 8, !tbaa !45
  call void @llvm.lifetime.start.p0(i64 8, ptr %3) #12
  call void @llvm.lifetime.start.p0(i64 32, ptr %4) #12
  call void @llvm.lifetime.start.p0(i64 4, ptr %5) #12
  call void @llvm.lifetime.start.p0(i64 4, ptr %6) #12
  call void @llvm.lifetime.start.p0(i64 4, ptr %7) #12
  %9 = load i8, ptr @initialized, align 1, !tbaa !47, !range !49, !noundef !50
  %10 = trunc i8 %9 to i1
  br i1 %10, label %41, label %11

11:                                               ; preds = %0
  %12 = call i32 @pmix_mca_base_framework_open(ptr noundef @pmix_pdl_base_framework, i32 noundef 0)
  store i32 %12, ptr %7, align 4, !tbaa !37
  %13 = load i32, ptr %7, align 4, !tbaa !37
  %14 = icmp ne i32 0, %13
  br i1 %14, label %15, label %18

15:                                               ; preds = %11
  %16 = load i32, ptr %7, align 4, !tbaa !37
  call void (i32, ptr, ...) @pmix_output(i32 noundef 0, ptr noundef @.str.4, ptr noundef @.str.5, i32 noundef 275, ptr noundef @__func__.pmix_mca_base_component_repository_init, i32 noundef %16)
  %17 = load i32, ptr %7, align 4, !tbaa !37
  store i32 %17, ptr %1, align 4
  store i32 1, ptr %8, align 4
  br label %112

18:                                               ; preds = %11
  %19 = call i32 @pmix_pdl_base_select()
  br label %20

20:                                               ; preds = %18
  br label %21

21:                                               ; preds = %20
  br label %22

22:                                               ; preds = %21
  %23 = load i32, ptr @pmix_class_init_epoch, align 4, !tbaa !37
  %24 = load i32, ptr getelementptr inbounds nuw (%struct.pmix_class_t, ptr @pmix_hash_table_t_class, i32 0, i32 4), align 8, !tbaa !51
  %25 = icmp ne i32 %23, %24
  br i1 %25, label %26, label %27

26:                                               ; preds = %22
  call void @pmix_class_initialize(ptr noundef @pmix_hash_table_t_class)
  br label %27

27:                                               ; preds = %26, %22
  store ptr @pmix_hash_table_t_class, ptr getelementptr inbounds nuw (%struct.pmix_object_t, ptr @pmix_mca_base_component_repository, i32 0, i32 1), align 8, !tbaa !53
  store i32 1, ptr getelementptr inbounds nuw (%struct.pmix_object_t, ptr @pmix_mca_base_component_repository, i32 0, i32 2), align 8, !tbaa !54
  call void @pmix_obj_construct_tma(ptr noundef @pmix_mca_base_component_repository, ptr noundef null)
  call void @pmix_obj_run_constructors(ptr noundef @pmix_mca_base_component_repository)
  br label %28

28:                                               ; preds = %27
  br label %29

29:                                               ; preds = %28
  br label %30

30:                                               ; preds = %29
  br label %31

31:                                               ; preds = %30
  br label %32

32:                                               ; preds = %31
  br label %33

33:                                               ; preds = %32
  %34 = call i32 @pmix_hash_table_init(ptr noundef @pmix_mca_base_component_repository, i64 noundef 128)
  store i32 %34, ptr %7, align 4, !tbaa !37
  %35 = load i32, ptr %7, align 4, !tbaa !37
  %36 = icmp ne i32 0, %35
  br i1 %36, label %37, label %40

37:                                               ; preds = %33
  %38 = call i32 @pmix_mca_base_framework_close(ptr noundef @pmix_pdl_base_framework)
  %39 = load i32, ptr %7, align 4, !tbaa !37
  store i32 %39, ptr %1, align 4
  store i32 1, ptr %8, align 4
  br label %112

40:                                               ; preds = %33
  store i8 1, ptr @initialized, align 1, !tbaa !47
  br label %41

41:                                               ; preds = %40, %0
  %42 = load ptr, ptr @pmix_mca_base_component_path, align 8, !tbaa !30
  %43 = call ptr @PMIx_Argv_split(ptr noundef %42, i32 noundef 59)
  store ptr %43, ptr %2, align 8, !tbaa !45
  store i32 0, ptr %6, align 4, !tbaa !37
  br label %44

44:                                               ; preds = %107, %41
  %45 = load ptr, ptr %2, align 8, !tbaa !45
  %46 = load i32, ptr %6, align 4, !tbaa !37
  %47 = sext i32 %46 to i64
  %48 = getelementptr inbounds ptr, ptr %45, i64 %47
  %49 = load ptr, ptr %48, align 8, !tbaa !30
  %50 = icmp ne ptr null, %49
  br i1 %50, label %51, label %110

51:                                               ; preds = %44
  store i32 0, ptr %5, align 4, !tbaa !37
  br label %52

52:                                               ; preds = %77, %51
  %53 = load ptr, ptr %2, align 8, !tbaa !45
  %54 = load i32, ptr %6, align 4, !tbaa !37
  %55 = sext i32 %54 to i64
  %56 = getelementptr inbounds ptr, ptr %53, i64 %55
  %57 = load ptr, ptr %56, align 8, !tbaa !30
  %58 = load i32, ptr %5, align 4, !tbaa !37
  %59 = sext i32 %58 to i64
  %60 = getelementptr inbounds i8, ptr %57, i64 %59
  %61 = load i8, ptr %60, align 1, !tbaa !36
  %62 = sext i8 %61 to i32
  %63 = icmp ne i32 64, %62
  br i1 %63, label %64, label %80

64:                                               ; preds = %52
  %65 = load ptr, ptr %2, align 8, !tbaa !45
  %66 = load i32, ptr %6, align 4, !tbaa !37
  %67 = sext i32 %66 to i64
  %68 = getelementptr inbounds ptr, ptr %65, i64 %67
  %69 = load ptr, ptr %68, align 8, !tbaa !30
  %70 = load i32, ptr %5, align 4, !tbaa !37
  %71 = sext i32 %70 to i64
  %72 = getelementptr inbounds i8, ptr %69, i64 %71
  %73 = load i8, ptr %72, align 1, !tbaa !36
  %74 = load i32, ptr %5, align 4, !tbaa !37
  %75 = sext i32 %74 to i64
  %76 = getelementptr inbounds [32 x i8], ptr %4, i64 0, i64 %75
  store i8 %73, ptr %76, align 1, !tbaa !36
  br label %77

77:                                               ; preds = %64
  %78 = load i32, ptr %5, align 4, !tbaa !37
  %79 = add nsw i32 %78, 1
  store i32 %79, ptr %5, align 4, !tbaa !37
  br label %52, !llvm.loop !55

80:                                               ; preds = %52
  %81 = load i32, ptr %5, align 4, !tbaa !37
  %82 = sext i32 %81 to i64
  %83 = getelementptr inbounds [32 x i8], ptr %4, i64 0, i64 %82
  store i8 0, ptr %83, align 1, !tbaa !36
  %84 = load i32, ptr %5, align 4, !tbaa !37
  %85 = add nsw i32 %84, 1
  store i32 %85, ptr %5, align 4, !tbaa !37
  %86 = load ptr, ptr %2, align 8, !tbaa !45
  %87 = load i32, ptr %6, align 4, !tbaa !37
  %88 = sext i32 %87 to i64
  %89 = getelementptr inbounds ptr, ptr %86, i64 %88
  %90 = load ptr, ptr %89, align 8, !tbaa !30
  %91 = load i32, ptr %5, align 4, !tbaa !37
  %92 = sext i32 %91 to i64
  %93 = getelementptr inbounds i8, ptr %90, i64 %92
  store ptr %93, ptr %3, align 8, !tbaa !30
  %94 = getelementptr inbounds [32 x i8], ptr %4, i64 0, i64 0
  %95 = load ptr, ptr %3, align 8, !tbaa !30
  %96 = call i32 @pmix_mca_base_component_repository_add(ptr noundef %94, ptr noundef %95)
  store i32 %96, ptr %7, align 4, !tbaa !37
  %97 = load i32, ptr %7, align 4, !tbaa !37
  %98 = icmp ne i32 0, %97
  br i1 %98, label %99, label %106

99:                                               ; preds = %80
  br label %100

100:                                              ; preds = %99
  call void @pmix_obj_run_destructors(ptr noundef @pmix_mca_base_component_repository)
  br label %101

101:                                              ; preds = %100
  br label %102

102:                                              ; preds = %101
  %103 = call i32 @pmix_mca_base_framework_close(ptr noundef @pmix_pdl_base_framework)
  %104 = load ptr, ptr %2, align 8, !tbaa !45
  call void @PMIx_Argv_free(ptr noundef %104)
  %105 = load i32, ptr %7, align 4, !tbaa !37
  store i32 %105, ptr %1, align 4
  store i32 1, ptr %8, align 4
  br label %112

106:                                              ; preds = %80
  br label %107

107:                                              ; preds = %106
  %108 = load i32, ptr %6, align 4, !tbaa !37
  %109 = add nsw i32 %108, 1
  store i32 %109, ptr %6, align 4, !tbaa !37
  br label %44, !llvm.loop !56

110:                                              ; preds = %44
  %111 = load ptr, ptr %2, align 8, !tbaa !45
  call void @PMIx_Argv_free(ptr noundef %111)
  store i32 0, ptr %1, align 4
  store i32 1, ptr %8, align 4
  br label %112

112:                                              ; preds = %110, %102, %37, %15
  call void @llvm.lifetime.end.p0(i64 4, ptr %7) #12
  call void @llvm.lifetime.end.p0(i64 4, ptr %6) #12
  call void @llvm.lifetime.end.p0(i64 4, ptr %5) #12
  call void @llvm.lifetime.end.p0(i64 32, ptr %4) #12
  call void @llvm.lifetime.end.p0(i64 8, ptr %3) #12
  call void @llvm.lifetime.end.p0(i64 8, ptr %2) #12
  %113 = load i32, ptr %1, align 4
  ret i32 %113
}