; Function Attrs: nounwind uwtable
define i32 @pmix_mca_base_component_repository_init() local_unnamed_addr #1 {
  %1 = alloca [32 x i8], align 16
  call void @llvm.lifetime.start.p0(i64 32, ptr nonnull %1) #15
  %.b31 = load i1, ptr @initialized, align 1
  br i1 %.b31, label %20, label %2

2:                                                ; preds = %0
  %3 = tail call i32 @pmix_mca_base_framework_open(ptr noundef nonnull @pmix_pdl_base_framework, i32 noundef 0) #15
  %.not = icmp eq i32 %3, 0
  br i1 %.not, label %5, label %4

4:                                                ; preds = %2
  tail call void (i32, ptr, ...) @pmix_output(i32 noundef 0, ptr noundef nonnull @.str.4, ptr noundef nonnull @.str.5, i32 noundef 275, ptr noundef nonnull @__func__.pmix_mca_base_component_repository_init, i32 noundef %3) #15
  br label %36

5:                                                ; preds = %2
  %6 = tail call i32 @pmix_pdl_base_select() #15
  %7 = load i32, ptr @pmix_class_init_epoch, align 4, !tbaa !31
  %8 = load i32, ptr getelementptr inbounds nuw (i8, ptr @pmix_hash_table_t_class, i64 32), align 8, !tbaa !32
  %.not32 = icmp eq i32 %7, %8
  br i1 %.not32, label %10, label %9

9:                                                ; preds = %5
  tail call void @pmix_class_initialize(ptr noundef nonnull @pmix_hash_table_t_class) #15
  br label %10

10:                                               ; preds = %9, %5
  store ptr @pmix_hash_table_t_class, ptr getelementptr inbounds nuw (i8, ptr @pmix_mca_base_component_repository, i64 40), align 8, !tbaa !33
  store i32 1, ptr getelementptr inbounds nuw (i8, ptr @pmix_mca_base_component_repository, i64 48), align 8, !tbaa !34
  tail call void @llvm.memset.p0.i64(ptr noundef nonnull align 8 dereferenceable(64) getelementptr inbounds nuw (i8, ptr @pmix_mca_base_component_repository, i64 56), i8 0, i64 64, i1 false)
  %11 = load ptr, ptr getelementptr inbounds nuw (i8, ptr @pmix_hash_table_t_class, i64 40), align 8, !tbaa !35
  %12 = load ptr, ptr %11, align 8, !tbaa !36
  %.not6.i = icmp eq ptr %12, null
  br i1 %.not6.i, label %pmix_obj_run_constructors.exit, label %.lr.ph.i

.lr.ph.i:                                         ; preds = %10, %.lr.ph.i
  %13 = phi ptr [ %15, %.lr.ph.i ], [ %12, %10 ]
  %.07.i = phi ptr [ %14, %.lr.ph.i ], [ %11, %10 ]
  tail call void %13(ptr noundef nonnull @pmix_mca_base_component_repository) #15
  %14 = getelementptr inbounds nuw i8, ptr %.07.i, i64 8
  %15 = load ptr, ptr %14, align 8, !tbaa !36
  %.not.i = icmp eq ptr %15, null
  br i1 %.not.i, label %pmix_obj_run_constructors.exit, label %.lr.ph.i, !llvm.loop !37

pmix_obj_run_constructors.exit:                   ; preds = %.lr.ph.i, %10
  %16 = tail call i32 @pmix_hash_table_init(ptr noundef nonnull @pmix_mca_base_component_repository, i64 noundef 128) #15
  %.not33 = icmp eq i32 %16, 0
  br i1 %.not33, label %19, label %17

17:                                               ; preds = %pmix_obj_run_constructors.exit
  %18 = tail call i32 @pmix_mca_base_framework_close(ptr noundef nonnull @pmix_pdl_base_framework) #15
  br label %36

19:                                               ; preds = %pmix_obj_run_constructors.exit
  store i1 true, ptr @initialized, align 1
  br label %20

20:                                               ; preds = %19, %0
  %21 = load ptr, ptr @pmix_mca_base_component_path, align 8, !tbaa !24
  %22 = tail call ptr @PMIx_Argv_split(ptr noundef %21, i32 noundef 59) #15
  %23 = load ptr, ptr %22, align 8, !tbaa !24
  %.not3438 = icmp eq ptr %23, null
  br i1 %.not3438, label %._crit_edge40, label %.preheader

.preheader:                                       ; preds = %20, %._crit_edge
  %24 = phi ptr [ %35, %._crit_edge ], [ %23, %20 ]
  %indvars.iv42 = phi i64 [ %indvars.iv.next43, %._crit_edge ], [ 0, %20 ]
  %25 = load i8, ptr %24, align 1, !tbaa !27
  %.not3536 = icmp eq i8 %25, 64
  br i1 %.not3536, label %._crit_edge, label %.lr.ph

.lr.ph:                                           ; preds = %.preheader, %.lr.ph
  %indvars.iv = phi i64 [ %indvars.iv.next, %.lr.ph ], [ 0, %.preheader ]
  %26 = phi i8 [ %29, %.lr.ph ], [ %25, %.preheader ]
  %27 = getelementptr inbounds nuw [32 x i8], ptr %1, i64 0, i64 %indvars.iv
  store i8 %26, ptr %27, align 1, !tbaa !27
  %indvars.iv.next = add nuw nsw i64 %indvars.iv, 1
  %28 = getelementptr inbounds nuw i8, ptr %24, i64 %indvars.iv.next
  %29 = load i8, ptr %28, align 1, !tbaa !27
  %.not35 = icmp eq i8 %29, 64
  br i1 %.not35, label %._crit_edge, label %.lr.ph, !llvm.loop !49

._crit_edge:                                      ; preds = %.lr.ph, %.preheader
  %.lcssa = phi i64 [ 0, %.preheader ], [ %indvars.iv.next, %.lr.ph ]
  %30 = getelementptr inbounds nuw [32 x i8], ptr %1, i64 0, i64 %.lcssa
  store i8 0, ptr %30, align 1, !tbaa !27
  %31 = getelementptr inbounds nuw i8, ptr %24, i64 %.lcssa
  %32 = getelementptr inbounds nuw i8, ptr %31, i64 1
  %33 = call i32 @pmix_mca_base_component_repository_add(ptr noundef nonnull %1, ptr noundef nonnull %32)
  %indvars.iv.next43 = add nuw nsw i64 %indvars.iv42, 1
  %34 = getelementptr inbounds nuw ptr, ptr %22, i64 %indvars.iv.next43
  %35 = load ptr, ptr %34, align 8, !tbaa !24
  %.not34 = icmp eq ptr %35, null
  br i1 %.not34, label %._crit_edge40, label %.preheader, !llvm.loop !50

._crit_edge40:                                    ; preds = %._crit_edge, %20
  call void @PMIx_Argv_free(ptr noundef nonnull %22) #15
  br label %36

36:                                               ; preds = %._crit_edge40, %17, %4
  %.027 = phi i32 [ 0, %._crit_edge40 ], [ %3, %4 ], [ %16, %17 ]
  call void @llvm.lifetime.end.p0(i64 32, ptr nonnull %1) #15
  ret i32 %.027
}